target datalayout = "e-m:e-p270:32:32-p271:32:32-p272:64:64-i64:64-i128:128-f80:128-n8:16:32:64-S128"
target triple = "x86_64-pc-linux-gnu"

%"class.Ipopt::ReferencedObject.base" = type <{ ptr, i32 }>
%"class.std::__cxx11::basic_string" = type { %"struct.std::__cxx11::basic_string<char>::_Alloc_hider", i64, %union.anon }
%"struct.std::__cxx11::basic_string<char>::_Alloc_hider" = type { ptr }
%union.anon = type { i64, [8 x i8] }
%"class.Ipopt::Journal" = type { %"class.Ipopt::ReferencedObject.base", %"class.std::__cxx11::basic_string", [32 x i32] }
%"class.Ipopt::FileJournal" = type { %"class.Ipopt::Journal", ptr }

; Function Attrs: mustprogress uwtable
define void @_ZN5Ipopt11FileJournal15FlushBufferImplEv(ptr noundef nonnull align 8 dereferenceable(184) %0) unnamed_addr #0 align 2 {
  %2 = alloca ptr, align 8
  store ptr %0, ptr %2, align 8
  %3 = load ptr, ptr %2, align 8
  %4 = getelementptr inbounds %"class.Ipopt::FileJournal", ptr %3, i32 0, i32 1
  %5 = load ptr, ptr %4, align 8
  %6 = icmp ne ptr %5, null
  br i1 %6, label %7, label %11

7:                                                ; preds = %1
  %8 = getelementptr inbounds %"class.Ipopt::FileJournal", ptr %3, i32 0, i32 1
  %9 = load ptr, ptr %8, align 8
  %10 = call i32 @fflush(ptr noundef %9)
  br label %11

11:                                               ; preds = %7, %1
  ret void
}