; Function Attrs: mustprogress nofree nounwind uwtable
define void @_ZN5Ipopt11FileJournal15FlushBufferImplEv(ptr nocapture noundef nonnull readonly align 8 dereferenceable(184) %0) unnamed_addr #13 align 2 {
  %2 = getelementptr inbounds i8, ptr %0, i64 176
  %3 = load ptr, ptr %2, align 8
  %.not = icmp eq ptr %3, null
  br i1 %.not, label %6, label %4

4:                                                ; preds = %1
  %5 = tail call i32 @fflush(ptr noundef nonnull %3)
  br label %6

6:                                                ; preds = %4, %1
  ret void
}